; Function Attrs: cold nounwind optsize uwtable
define internal i32 @flashsv_decode_init(ptr noundef %0) #0 {
  %2 = getelementptr inbounds nuw i8, ptr %0, i64 32
  %3 = load ptr, ptr %2, align 8, !tbaa !4
  store ptr %0, ptr %3, align 8, !tbaa !27
  %4 = getelementptr inbounds nuw i8, ptr %0, i64 136
  store i32 3, ptr %4, align 8, !tbaa !35
  %5 = tail call ptr @av_frame_alloc() #7
  %6 = getelementptr inbounds nuw i8, ptr %3, i64 8
  store ptr %5, ptr %6, align 8, !tbaa !36
  %.not = icmp eq ptr %5, null
  br i1 %.not, label %10, label %7

7:                                                ; preds = %1
  %8 = getelementptr inbounds nuw i8, ptr %3, i64 120
  %9 = tail call i32 @ff_inflate_init(ptr noundef nonnull %8, ptr noundef nonnull %0) #7
  br label %10

10:                                               ; preds = %1, %7
  %.0 = phi i32 [ %9, %7 ], [ -12, %1 ]
  ret i32 %.0
}